target datalayout = "e-m:e-p270:32:32-p271:32:32-p272:64:64-i64:64-i128:128-f80:128-n8:16:32:64-S128"
target triple = "x86_64-pc-linux-gnu"

%struct.sockaddr_un = type { i16, [108 x i8] }
%struct.unix_sockaddr_context = type { ptr }
%union.__CONST_SOCKADDR_ARG = type { ptr }

@.str = private unnamed_addr constant [45 x i8] c"unable to restore original working directory\00", align 1

; Function Attrs: nounwind uwtable
define internal void @unix_sockaddr_cleanup(ptr noundef %0) #0 {
  %2 = alloca ptr, align 8
  store ptr %0, ptr %2, align 8, !tbaa !14
  %3 = load ptr, ptr %2, align 8, !tbaa !14
  %4 = getelementptr inbounds nuw %struct.unix_sockaddr_context, ptr %3, i32 0, i32 0
  %5 = load ptr, ptr %4, align 8, !tbaa !16
  %6 = icmp ne ptr %5, null
  br i1 %6, label %8, label %7

7:                                                ; preds = %1
  br label %19

8:                                                ; preds = %1
  %9 = load ptr, ptr %2, align 8, !tbaa !14
  %10 = getelementptr inbounds nuw %struct.unix_sockaddr_context, ptr %9, i32 0, i32 0
  %11 = load ptr, ptr %10, align 8, !tbaa !16
  %12 = call i32 @chdir(ptr noundef %11) #10
  %13 = icmp slt i32 %12, 0
  br i1 %13, label %14, label %15

14:                                               ; preds = %8
  call void (ptr, ...) @die(ptr noundef @.str) #13
  unreachable

15:                                               ; preds = %8
  %16 = load ptr, ptr %2, align 8, !tbaa !14
  %17 = getelementptr inbounds nuw %struct.unix_sockaddr_context, ptr %16, i32 0, i32 0
  %18 = load ptr, ptr %17, align 8, !tbaa !16
  call void @free(ptr noundef %18) #10
  br label %19

19:                                               ; preds = %15, %7
  ret void
}

; Function Attrs: nounwind uwtable
define dso_local i32 @unix_stream_connect(ptr noundef %0, i32 noundef %1) #0 {
  %3 = alloca i32, align 4
  %4 = alloca ptr, align 8
  %5 = alloca i32, align 4
  %6 = alloca i32, align 4
  %7 = alloca i32, align 4
  %8 = alloca %struct.sockaddr_un, align 2
  %9 = alloca %struct.unix_sockaddr_context, align 8
  %10 = alloca i32, align 4
  %11 = alloca %union.__CONST_SOCKADDR_ARG, align 8
  store ptr %0, ptr %4, align 8, !tbaa !4
  store i32 %1, ptr %5, align 4, !tbaa !9
  call void @llvm.lifetime.start.p0(i64 4, ptr %6) #10
  store i32 -1, ptr %6, align 4, !tbaa !9
  call void @llvm.lifetime.start.p0(i64 4, ptr %7) #10
  call void @llvm.lifetime.start.p0(i64 110, ptr %8) #10
  call void @llvm.lifetime.start.p0(i64 8, ptr %9) #10
  %12 = load ptr, ptr %4, align 8, !tbaa !4
  %13 = load i32, ptr %5, align 4, !tbaa !9
  %14 = call i32 @unix_sockaddr_init(ptr noundef %8, ptr noundef %12, ptr noundef %9, i32 noundef %13)
  %15 = icmp slt i32 %14, 0
  br i1 %15, label %16, label %17

16:                                               ; preds = %2
  store i32 -1, ptr %3, align 4
  store i32 1, ptr %10, align 4
  br label %42

17:                                               ; preds = %2
  %18 = call i32 @socket(i32 noundef 1, i32 noundef 1, i32 noundef 0) #10
  store i32 %18, ptr %6, align 4, !tbaa !9
  %19 = load i32, ptr %6, align 4, !tbaa !9
  %20 = icmp slt i32 %19, 0
  br i1 %20, label %21, label %22

21:                                               ; preds = %17
  br label %31

22:                                               ; preds = %17
  %23 = load i32, ptr %6, align 4, !tbaa !9
  store ptr %8, ptr %11, align 8, !tbaa !11
  %24 = getelementptr inbounds nuw %union.__CONST_SOCKADDR_ARG, ptr %11, i32 0, i32 0
  %25 = load ptr, ptr %24, align 8
  %26 = call i32 @connect(i32 noundef %23, ptr %25, i32 noundef 110)
  %27 = icmp slt i32 %26, 0
  br i1 %27, label %28, label %29

28:                                               ; preds = %22
  br label %31

29:                                               ; preds = %22
  call void @unix_sockaddr_cleanup(ptr noundef %9)
  %30 = load i32, ptr %6, align 4, !tbaa !9
  store i32 %30, ptr %3, align 4
  store i32 1, ptr %10, align 4
  br label %42

31:                                               ; preds = %28, %21
  %32 = call ptr @__errno_location() #11
  %33 = load i32, ptr %32, align 4, !tbaa !9
  store i32 %33, ptr %7, align 4, !tbaa !9
  %34 = load i32, ptr %6, align 4, !tbaa !9
  %35 = icmp ne i32 %34, -1
  br i1 %35, label %36, label %39

36:                                               ; preds = %31
  %37 = load i32, ptr %6, align 4, !tbaa !9
  %38 = call i32 @close(i32 noundef %37)
  br label %39

39:                                               ; preds = %36, %31
  call void @unix_sockaddr_cleanup(ptr noundef %9)
  %40 = load i32, ptr %7, align 4, !tbaa !9
  %41 = call ptr @__errno_location() #11
  store i32 %40, ptr %41, align 4, !tbaa !9
  store i32 -1, ptr %3, align 4
  store i32 1, ptr %10, align 4
  br label %42

42:                                               ; preds = %39, %29, %16
  call void @llvm.lifetime.end.p0(i64 8, ptr %9) #10
  call void @llvm.lifetime.end.p0(i64 110, ptr %8) #10
  call void @llvm.lifetime.end.p0(i64 4, ptr %7) #10
  call void @llvm.lifetime.end.p0(i64 4, ptr %6) #10
  %43 = load i32, ptr %3, align 4
  ret i32 %43
}