; Function Attrs: nounwind uwtable
define dso_local range(i32 -1, -2147483648) i32 @unix_stream_connect(ptr noundef %0, i32 noundef %1) local_unnamed_addr #0 {
  %3 = alloca %struct.sockaddr_un, align 2
  %4 = alloca %struct.unix_sockaddr_context, align 8
  call void @llvm.lifetime.start.p0(i64 110, ptr nonnull %3) #11
  call void @llvm.lifetime.start.p0(i64 8, ptr nonnull %4) #11
  %5 = call fastcc i32 @unix_sockaddr_init(ptr noundef %3, ptr noundef %0, ptr noundef %4, i32 noundef %1)
  %6 = icmp slt i32 %5, 0
  br i1 %6, label %unix_sockaddr_cleanup.exit, label %7

7:                                                ; preds = %2
  %8 = tail call i32 @socket(i32 noundef 1, i32 noundef 1, i32 noundef 0) #11
  %9 = icmp slt i32 %8, 0
  br i1 %9, label %21, label %10

10:                                               ; preds = %7
  %11 = call i32 @connect(i32 noundef %8, ptr nonnull %3, i32 noundef 110) #11
  %12 = icmp slt i32 %11, 0
  br i1 %12, label %.thread, label %15

.thread:                                          ; preds = %10
  %13 = tail call ptr @__errno_location() #12
  %14 = load i32, ptr %13, align 4, !tbaa !4
  br label %24

15:                                               ; preds = %10
  %.val = load ptr, ptr %4, align 8, !tbaa !8
  %.not.i = icmp eq ptr %.val, null
  br i1 %.not.i, label %unix_sockaddr_cleanup.exit, label %16

16:                                               ; preds = %15
  %17 = call i32 @chdir(ptr noundef nonnull %.val) #11
  %18 = icmp slt i32 %17, 0
  br i1 %18, label %19, label %20

19:                                               ; preds = %16
  call void (ptr, ...) @die(ptr noundef nonnull @.str) #13
  unreachable

20:                                               ; preds = %16
  call void @free(ptr noundef nonnull %.val) #11
  br label %unix_sockaddr_cleanup.exit

21:                                               ; preds = %7
  %22 = tail call ptr @__errno_location() #12
  %23 = load i32, ptr %22, align 4, !tbaa !4
  %.not = icmp eq i32 %8, -1
  br i1 %.not, label %28, label %24

24:                                               ; preds = %.thread, %21
  %25 = phi i32 [ %14, %.thread ], [ %23, %21 ]
  %26 = phi ptr [ %13, %.thread ], [ %22, %21 ]
  %27 = call i32 @close(i32 noundef %8) #11
  br label %28

28:                                               ; preds = %24, %21
  %29 = phi i32 [ %25, %24 ], [ %23, %21 ]
  %30 = phi ptr [ %26, %24 ], [ %22, %21 ]
  %.val9 = load ptr, ptr %4, align 8, !tbaa !8
  %.not.i10 = icmp eq ptr %.val9, null
  br i1 %.not.i10, label %unix_sockaddr_cleanup.exit11, label %31

31:                                               ; preds = %28
  %32 = call i32 @chdir(ptr noundef nonnull %.val9) #11
  %33 = icmp slt i32 %32, 0
  br i1 %33, label %34, label %35

34:                                               ; preds = %31
  call void (ptr, ...) @die(ptr noundef nonnull @.str) #13
  unreachable

35:                                               ; preds = %31
  call void @free(ptr noundef nonnull %.val9) #11
  br label %unix_sockaddr_cleanup.exit11

unix_sockaddr_cleanup.exit11:                     ; preds = %28, %35
  store i32 %29, ptr %30, align 4, !tbaa !4
  br label %unix_sockaddr_cleanup.exit

unix_sockaddr_cleanup.exit:                       ; preds = %20, %15, %2, %unix_sockaddr_cleanup.exit11
  %.0 = phi i32 [ -1, %unix_sockaddr_cleanup.exit11 ], [ -1, %2 ], [ %8, %15 ], [ %8, %20 ]
  call void @llvm.lifetime.end.p0(i64 8, ptr nonnull %4) #11
  call void @llvm.lifetime.end.p0(i64 110, ptr nonnull %3) #11
  ret i32 %.0
}